(lp0
((dp1
VSealtech Caulking & Wtrprfng
p2
(dp3
S'lat'
p4
F37.781047
sS'lon'
p5
F-122.388766
ss(dp6
VKeizer Associates
p7
(dp8
g4
F37.765286
sg5
F-122.394757
sstp9
a(g1
(dp10
VHarpers San Francisco
p11
(dp12
g4
F37.79414
sg5
F-122.399642
sstp13
a((dp14
VTelegraph Landing North Assn
p15
(dp16
g4
F37.80316
sg5
F-122.426019
ss(dp17
VBay Vista Insurance Agency
p18
(dp19
g4
F37.800158
sg5
F-122.440908
sstp20
a((dp21
VAmerican Pacific Investments
p22
(dp23
g4
F37.791177
sg5
F-122.400744
ssg1
tp24
a((dp25
VAll Metals Welding
p26
(dp27
g4
F37.729488
sg5
F-122.436672
ss(dp28
VBay Area Elite Electric Inc
p29
(dp30
g4
F37.735013
sg5
F-122.431301
sstp31
a((dp32
VOpen Enterprises
p33
(dp34
g4
F37.779955
sg5
F-122.407049
ssg21
tp35
a(g14
(dp36
VWieder Enterprises
p37
(dp38
g4
F37.797047
sg5
F-122.398207
sstp39
a((dp40
VResteurop Orly Snc
p41
(dp42
g4
F37.77916
sg5
F-122.42009
ss(dp43
VOpperman Financial Group
p44
(dp45
g4
F37.788197
sg5
F-122.453492
sstp46
a(g43
g17
tp47
a((dp48
VNorth American Title Company
p49
(dp50
g4
F37.791316
sg5
F-122.398653
ssg1
tp51
a.