(lp0
((dp1
VSeafarer's International Union
p2
(dp3
S'lat'
p4
F37.787023
sS'lon'
p5
F-122.392415
ss(dp6
VKnoll Inc
p7
(dp8
g4
F37.792684
sg5
F-122.402816
sstp9
a((dp10
VJones & Stokes
p11
(dp12
g4
F37.804116
sg5
F-122.403267
ss(dp13
VId 8 Media
p14
(dp15
g4
F37.787218
sg5
F-122.403906
sstp16
a((dp17
VPendragon Bakery
p18
(dp19
g4
F37.776674
sg5
F-122.424623
ss(dp20
VTita's Hair Styling
p21
(dp22
g4
F37.752383
sg5
F-122.417328
sstp23
a(g20
(dp24
VFuture Primitive Sound
p25
(dp26
g4
F37.772029
sg5
F-122.430795
sstp27
a((dp28
VMicro Lan
p29
(dp30
g4
F37.775332
sg5
F-122.397206
ss(dp31
VCity Jeweler Mfr
p32
(dp33
g4
F37.786324
sg5
F-122.405405
sstp34
a((dp35
VDiloy & Assoc Corp
p36
(dp37
g4
F37.781241
sg5
F-122.408333
ss(dp38
VMediasmith Inc
p39
(dp40
g4
F37.782051
sg5
F-122.391978
sstp41
a((dp42
VSerendipity Designs
p43
(dp44
g4
F37.793232
sg5
F-122.43626
ssg13
tp45
a((dp46
VByron Meyer & Co
p47
(dp48
g4
F37.797396
sg5
F-122.402887
ss(dp49
VHound-Gentlemen's Clothiers
p50
(dp51
g4
F37.790061
sg5
F-122.402647
sstp52
a(g6
(dp53
VCustom Color Lab
p54
(dp55
g4
F37.782683
sg5
F-122.39322
sstp56
a((dp57
VAmerican Re Insurance Co
p58
(dp59
g4
F37.792408
sg5
F-122.398588
ssg38
tp60
a(g10
g1
tp61
a((dp62
VSpeedway Copy Systems Inc
p63
(dp64
g4
F37.800352
sg5
F-122.401487
ssg57
tp65
a((dp66
VBartko Zankel Tarrant & Miller
p67
(dp68
g4
F37.800607
sg5
F-122.40025
ssg1
tp69
a((dp70
VHolman Financial Svc
p71
(dp72
g4
F37.793062
sg5
F-122.400644
ss(dp73
VDavid Hwang Inc
p74
(dp75
g4
F37.770033
sg5
F-122.414012
sstp76
a((dp77
VCalifornia Accounting Ctr
p78
(dp79
g4
F37.799569
sg5
F-122.4372
ss(dp80
VMarios Deli Coffee
p81
(dp82
g4
F37.763386
sg5
F-122.43783
sstp83
a(g35
g49
tp84
a(g35
(dp85
VLee Hecht Harrison
p86
(dp87
g4
F37.792086
sg5
F-122.4006
sstp88
a(g1
(dp89
VNew Village Cafe
p90
(dp91
g4
F37.790336
sg5
F-122.420572
sstp92
a((dp93
VAce Legal Assistance
p94
(dp95
g4
F37.773523
sg5
F-122.4351
ssg73
tp96
a((dp97
VTelegraph Landing North Assn
p98
(dp99
g4
F37.80316
sg5
F-122.426019
ssg89
tp100
a(g10
g42
tp101
a(g57
g28
tp102
a(g66
g97
tp103
a((dp104
VIDG Ventures Management Co
p105
(dp106
g4
F37.792654
sg5
F-122.40507
ssg1
tp107
a(g17
g62
tp108
a((dp109
VFolk Look Inc
p110
(dp111
g4
F37.775147
sg5
F-122.419256
ssg6
tp112
a(g42
g89
tp113
a(g73
g89
tp114
a(g46
g17
tp115
a(g73
g97
tp116
a(g80
g24
tp117
a(g35
(dp118
VDesigners Resource
p119
(dp120
g4
F37.761188
sg5
F-122.44215
sstp121
a(g35
g77
tp122
a(g77
g31
tp123
a(g104
g53
tp124
a(g17
g80
tp125
a(g35
(dp126
VMee Seng Gemcutters
p127
(dp128
g4
F37.767142
sg5
F-122.406677
sstp129
a(g49
g126
tp130
a(g17
g85
tp131
a(g13
g53
tp132
a((dp133
VKeizer Associates
p134
(dp135
g4
F37.765286
sg5
F-122.394757
ssg73
tp136
a((dp137
VJoseph Tan CPA
p138
(dp139
g4
F37.758594
sg5
F-122.492805
ss(dp140
VH F Properties
p141
(dp142
g4
F37.742532
sg5
F-122.487476
sstp143
a(g20
g118
tp144
a(g24
g126
tp145
a(g46
g57
tp146
a(g85
g28
tp147
a(g46
g35
tp148
a(g10
g70
tp149
a(g133
g6
tp150
a(g97
g13
tp151
a(g35
g57
tp152
a(g46
g31
tp153
a(g62
g49
tp154
a(g62
g31
tp155
a(g42
g97
tp156
a(g46
g77
tp157
a((dp158
VAlexander & Alexander-Calif
p159
(dp160
g4
F37.790827
sg5
F-122.39931
ssg97
tp161
a(g28
g126
tp162
a(g104
g133
tp163
a(g80
g126
tp164
a(g97
g6
tp165
a(g17
g24
tp166
a(g57
g126
tp167
a(g49
g28
tp168
a(g118
g126
tp169
a(g62
g35
tp170
a(g20
g28
tp171
a(g10
g6
tp172
a(g57
g49
tp173
a(g133
g109
tp174
a(g28
g24
tp175
a(g104
g73
tp176
a(g38
g31
tp177
a(g73
g53
tp178
a(g1
g13
tp179
a(g42
g6
tp180
a(g93
g109
tp181
a(g133
g13
tp182
a(g109
g13
tp183
a(g17
g38
tp184
a(g62
g38
tp185
a(g118
g31
tp186
a(g46
g38
tp187
a((dp188
VRactive Network
p189
(dp190
g4
F37.73047
sg5
F-122.434433
ssg20
tp191
a(g70
g66
tp192
a(g1
g133
tp193
a(g133
g53
tp194
a(g42
(dp195
VWilliam Meehan PHD
p196
(dp197
g4
F37.786363
sg5
F-122.472112
sstp198
a(g104
g66
tp199
a(g46
g85
tp200
a(g17
g49
tp201
a(g70
g89
tp202
a(g42
g109
tp203
a(g70
g53
tp204
a(g80
g20
tp205
a(g10
g158
tp206
a(g66
g73
tp207
a(g85
g126
tp208
a(g1
g109
tp209
a(g158
g42
tp210
a.