(lp0
((dp1
VCrista M Lucey
p2
(dp3
S'lat'
p4
F37.789486
sS'lon'
p5
F-122.402023
ss(dp6
VVeterans Industries
p7
(dp8
g4
F37.770131
sg5
F-122.419354
sstp9
a(g1
(dp10
VManulife Financial
p11
(dp12
g4
F37.793358
sg5
F-122.398782
sstp13
a((dp14
VP W Bellingall Inc
p15
(dp16
g4
F37.795306
sg5
F-122.401581
ss(dp17
VOpen Enterprises
p18
(dp19
g4
F37.779955
sg5
F-122.407049
sstp20
a((dp21
VZurich Holding Co of Amer Del
p22
(dp23
g4
F37.789642
sg5
F-122.402049
ssg10
tp24
a((dp25
VBelknap & Purcell
p26
(dp27
g4
F37.791072
sg5
F-122.430796
ssg21
tp28
a((dp29
VSunnyside Properties
p30
(dp31
g4
F37.783957
sg5
F-122.454552
ss(dp32
VAlexander F Farr Inc
p33
(dp34
g4
F37.800203
sg5
F-122.437749
sstp35
a((dp36
VMHC Engineers
p37
(dp38
g4
F37.776745
sg5
F-122.412347
ssg1
tp39
a((dp40
VLittle Jackie Paper
p41
(dp42
g4
F37.770218
sg5
F-122.429754
ssg25
tp43
a((dp44
VLynx Metals & Resources Inc
p45
(dp46
g4
F37.792737
sg5
F-122.404287
ss(dp47
VBest Impression
p48
(dp49
g4
F37.77169
sg5
F-122.411494
sstp50
a(g36
g6
tp51
a(g17
g1
tp52
a((dp53
VS & H Properties Of Danville
p54
(dp55
g4
F37.762998
sg5
F-122.401303
ssg21
tp56
a(g14
g47
tp57
a(g17
g6
tp58
a(g1
(dp59
VFremont Partners III LLC
p60
(dp61
g4
F37.78966
sg5
F-122.395685
sstp62
a(g36
g10
tp63
a(g40
(dp64
VJack In The Box
p65
(dp66
g4
F37.751156
sg5
F-122.418403
sstp67
a(g14
g59
tp68
a(g14
g25
tp69
a(g17
g53
tp70
a.